target datalayout = "e-m:e-p270:32:32-p271:32:32-p272:64:64-i64:64-i128:128-f80:128-n8:16:32:64-S128"
target triple = "x86_64-pc-linux-gnu"

%struct.yyguts_t = type { ptr, ptr, ptr, i64, i64, ptr, i8, i32, i32, ptr, i32, i32, i32, i32, i32, ptr, i32, ptr, i32, i32, ptr, i32, i32 }
%struct.yy_buffer_state = type { ptr, ptr, ptr, i32, i32, i32, i32, i32, i32, i32, i32, i32 }

; Function Attrs: mustprogress nounwind uwtable
define dso_local noundef i32 @_Z34cmCTestResourceGroups_yyget_columnPv(ptr noundef %0) #6 {
  %2 = alloca i32, align 4
  %3 = alloca ptr, align 8
  %4 = alloca ptr, align 8
  %5 = alloca i32, align 4
  store ptr %0, ptr %3, align 8, !tbaa !4
  call void @llvm.lifetime.start.p0(i64 8, ptr %4) #3
  %6 = load ptr, ptr %3, align 8, !tbaa !4
  store ptr %6, ptr %4, align 8, !tbaa !8
  %7 = load ptr, ptr %4, align 8, !tbaa !8
  %8 = getelementptr inbounds nuw %struct.yyguts_t, ptr %7, i32 0, i32 5
  %9 = load ptr, ptr %8, align 8, !tbaa !23
  %10 = icmp ne ptr %9, null
  br i1 %10, label %11, label %20

11:                                               ; preds = %1
  %12 = load ptr, ptr %4, align 8, !tbaa !8
  %13 = getelementptr inbounds nuw %struct.yyguts_t, ptr %12, i32 0, i32 5
  %14 = load ptr, ptr %13, align 8, !tbaa !23
  %15 = load ptr, ptr %4, align 8, !tbaa !8
  %16 = getelementptr inbounds nuw %struct.yyguts_t, ptr %15, i32 0, i32 3
  %17 = load i64, ptr %16, align 8, !tbaa !24
  %18 = getelementptr inbounds nuw ptr, ptr %14, i64 %17
  %19 = load ptr, ptr %18, align 8, !tbaa !25
  br label %21

20:                                               ; preds = %1
  br label %21

21:                                               ; preds = %20, %11
  %22 = phi ptr [ %19, %11 ], [ null, %20 ]
  %23 = icmp ne ptr %22, null
  br i1 %23, label %25, label %24

24:                                               ; preds = %21
  store i32 0, ptr %2, align 4
  store i32 1, ptr %5, align 4
  br label %36

25:                                               ; preds = %21
  %26 = load ptr, ptr %4, align 8, !tbaa !8
  %27 = getelementptr inbounds nuw %struct.yyguts_t, ptr %26, i32 0, i32 5
  %28 = load ptr, ptr %27, align 8, !tbaa !23
  %29 = load ptr, ptr %4, align 8, !tbaa !8
  %30 = getelementptr inbounds nuw %struct.yyguts_t, ptr %29, i32 0, i32 3
  %31 = load i64, ptr %30, align 8, !tbaa !24
  %32 = getelementptr inbounds nuw ptr, ptr %28, i64 %31
  %33 = load ptr, ptr %32, align 8, !tbaa !25
  %34 = getelementptr inbounds nuw %struct.yy_buffer_state, ptr %33, i32 0, i32 9
  %35 = load i32, ptr %34, align 8, !tbaa !71
  store i32 %35, ptr %2, align 4
  store i32 1, ptr %5, align 4
  br label %36

36:                                               ; preds = %25, %24
  call void @llvm.lifetime.end.p0(i64 8, ptr %4) #3
  %37 = load i32, ptr %2, align 4
  ret i32 %37
}